target datalayout = "e-m:e-p270:32:32-p271:32:32-p272:64:64-i64:64-i128:128-f80:128-n8:16:32:64-S128"
target triple = "x86_64-pc-linux-gnu"

%struct.Fra_Cla_t_ = type { ptr, ptr, ptr, ptr, ptr, ptr, ptr, ptr, ptr, i32, i32, ptr, ptr, ptr, ptr }
%struct.Aig_Obj_t_ = type { %union.anon, ptr, ptr, i64, i32, i32, %union.anon.0 }
%union.anon = type { ptr }
%union.anon.0 = type { ptr }

@.str.1 = private unnamed_addr constant [3 x i8] c"{ \00", align 1
@.str.2 = private unnamed_addr constant [11 x i8] c"%d(%d,%d) \00", align 1
@.str.3 = private unnamed_addr constant [3 x i8] c"}\0A\00", align 1

; Function Attrs: nounwind uwtable
define void @Fra_PrintClass(ptr noundef %0, ptr noundef %1) #0 {
  %3 = alloca ptr, align 8
  %4 = alloca ptr, align 8
  %5 = alloca ptr, align 8
  %6 = alloca i32, align 4
  store ptr %0, ptr %3, align 8, !tbaa !8
  store ptr %1, ptr %4, align 8, !tbaa !53
  call void @llvm.lifetime.start.p0(i64 8, ptr %5) #10
  call void @llvm.lifetime.start.p0(i64 4, ptr %6) #10
  store i32 1, ptr %6, align 4, !tbaa !35
  br label %7

7:                                                ; preds = %15, %2
  %8 = load ptr, ptr %4, align 8, !tbaa !53
  %9 = load i32, ptr %6, align 4, !tbaa !35
  %10 = sext i32 %9 to i64
  %11 = getelementptr inbounds ptr, ptr %8, i64 %10
  %12 = load ptr, ptr %11, align 8, !tbaa !47
  store ptr %12, ptr %5, align 8, !tbaa !47
  %13 = icmp ne ptr %12, null
  br i1 %13, label %14, label %18

14:                                               ; preds = %7
  br label %15

15:                                               ; preds = %14
  %16 = load i32, ptr %6, align 4, !tbaa !35
  %17 = add nsw i32 %16, 1
  store i32 %17, ptr %6, align 4, !tbaa !35
  br label %7, !llvm.loop !57

18:                                               ; preds = %7
  %19 = call i32 (ptr, ...) @printf(ptr noundef @.str.1)
  store i32 0, ptr %6, align 4, !tbaa !35
  br label %20

20:                                               ; preds = %43, %18
  %21 = load ptr, ptr %4, align 8, !tbaa !53
  %22 = load i32, ptr %6, align 4, !tbaa !35
  %23 = sext i32 %22 to i64
  %24 = getelementptr inbounds ptr, ptr %21, i64 %23
  %25 = load ptr, ptr %24, align 8, !tbaa !47
  store ptr %25, ptr %5, align 8, !tbaa !47
  %26 = icmp ne ptr %25, null
  br i1 %26, label %27, label %46

27:                                               ; preds = %20
  %28 = load ptr, ptr %5, align 8, !tbaa !47
  %29 = getelementptr inbounds nuw %struct.Aig_Obj_t_, ptr %28, i32 0, i32 5
  %30 = load i32, ptr %29, align 4, !tbaa !50
  %31 = load ptr, ptr %5, align 8, !tbaa !47
  %32 = getelementptr inbounds nuw %struct.Aig_Obj_t_, ptr %31, i32 0, i32 3
  %33 = load i64, ptr %32, align 8
  %34 = lshr i64 %33, 32
  %35 = and i64 %34, 16777215
  %36 = trunc i64 %35 to i32
  %37 = load ptr, ptr %3, align 8, !tbaa !8
  %38 = getelementptr inbounds nuw %struct.Fra_Cla_t_, ptr %37, i32 0, i32 0
  %39 = load ptr, ptr %38, align 8, !tbaa !10
  %40 = load ptr, ptr %5, align 8, !tbaa !47
  %41 = call i32 @Aig_SupportSize(ptr noundef %39, ptr noundef %40)
  %42 = call i32 (ptr, ...) @printf(ptr noundef @.str.2, i32 noundef %30, i32 noundef %36, i32 noundef %41)
  br label %43

43:                                               ; preds = %27
  %44 = load i32, ptr %6, align 4, !tbaa !35
  %45 = add nsw i32 %44, 1
  store i32 %45, ptr %6, align 4, !tbaa !35
  br label %20, !llvm.loop !58

46:                                               ; preds = %20
  %47 = call i32 (ptr, ...) @printf(ptr noundef @.str.3)
  call void @llvm.lifetime.end.p0(i64 4, ptr %6) #10
  call void @llvm.lifetime.end.p0(i64 8, ptr %5) #10
  ret void
}