; Function Attrs: nounwind uwtable
define void @Fra_PrintClass(ptr noundef readonly captures(none) %0, ptr noundef readonly captures(none) %1) local_unnamed_addr #6 {
  %3 = tail call i32 (ptr, ...) @printf(ptr noundef nonnull dereferenceable(1) @.str.1)
  %4 = load ptr, ptr %1, align 8, !tbaa !42
  %.not1011 = icmp eq ptr %4, null
  br i1 %.not1011, label %._crit_edge, label %.lr.ph

.lr.ph:                                           ; preds = %2, %.lr.ph
  %indvars.iv = phi i64 [ %indvars.iv.next, %.lr.ph ], [ 0, %2 ]
  %5 = phi ptr [ %17, %.lr.ph ], [ %4, %2 ]
  %6 = getelementptr inbounds nuw i8, ptr %5, i64 36
  %7 = load i32, ptr %6, align 4, !tbaa !45
  %8 = getelementptr inbounds nuw i8, ptr %5, i64 24
  %9 = load i64, ptr %8, align 8
  %10 = lshr i64 %9, 32
  %11 = trunc nuw i64 %10 to i32
  %12 = and i32 %11, 16777215
  %13 = load ptr, ptr %0, align 8, !tbaa !3
  %14 = tail call i32 @Aig_SupportSize(ptr noundef %13, ptr noundef nonnull %5) #18
  %15 = tail call i32 (ptr, ...) @printf(ptr noundef nonnull dereferenceable(1) @.str.2, i32 noundef %7, i32 noundef %12, i32 noundef %14)
  %indvars.iv.next = add nuw nsw i64 %indvars.iv, 1
  %16 = getelementptr inbounds nuw ptr, ptr %1, i64 %indvars.iv.next
  %17 = load ptr, ptr %16, align 8, !tbaa !42
  %.not10 = icmp eq ptr %17, null
  br i1 %.not10, label %._crit_edge, label %.lr.ph, !llvm.loop !50

._crit_edge:                                      ; preds = %.lr.ph, %2
  %puts = tail call i32 @puts(ptr nonnull dereferenceable(1) @str.2)
  ret void
}